; Function Attrs: mustprogress nofree norecurse nosync nounwind willreturn memory(none) uwtable
define hidden range(i32 0, 2) i32 @SDL_isxdigit_REAL(i32 noundef %0) local_unnamed_addr #2 {
  switch i32 %0, label %2 [
    i32 102, label %6
    i32 101, label %6
    i32 100, label %6
    i32 99, label %6
    i32 98, label %6
    i32 97, label %6
    i32 70, label %6
    i32 69, label %6
    i32 68, label %6
    i32 67, label %6
    i32 66, label %6
    i32 65, label %6
  ]

2:                                                ; preds = %1
  %3 = add i32 %0, -48
  %4 = icmp ult i32 %3, 10
  %5 = zext i1 %4 to i32
  br label %6

6:                                                ; preds = %1, %1, %1, %1, %1, %1, %1, %1, %1, %1, %1, %1, %2
  %7 = phi i32 [ %5, %2 ], [ 1, %1 ], [ 1, %1 ], [ 1, %1 ], [ 1, %1 ], [ 1, %1 ], [ 1, %1 ], [ 1, %1 ], [ 1, %1 ], [ 1, %1 ], [ 1, %1 ], [ 1, %1 ], [ 1, %1 ]
  ret i32 %7
}